; ModuleID = 'source-C-CXX/12/1124.c'
source_filename = "source-C-CXX/12/1124.c"
target datalayout = "e-m:e-p270:32:32-p271:32:32-p272:64:64-i64:64-f80:128-n8:16:32:64-S128"
target triple = "x86_64-pc-linux-gnu"

@.str = private unnamed_addr constant [3 x i8] c"%d\00", align 1
@.str.1 = private unnamed_addr constant [4 x i8] c" %d\00", align 1

; Function Attrs: nofree nounwind sspstrong uwtable
define dso_local i32 @main() local_unnamed_addr #0 {
  %1 = alloca i32, align 4
  %2 = alloca [20000 x i32], align 16
  %3 = bitcast i32* %1 to i8*
  call void @llvm.lifetime.start.p0i8(i64 4, i8* nonnull %3) #3
  %4 = bitcast [20000 x i32]* %2 to i8*
  call void @llvm.lifetime.start.p0i8(i64 80000, i8* nonnull %4) #3
  %5 = call i32 (i8*, ...) @__isoc99_scanf(i8* getelementptr inbounds ([3 x i8], [3 x i8]* @.str, i64 0, i64 0), i32* nonnull %1)
  %6 = load i32, i32* %1, align 4, !tbaa !5
  %7 = icmp slt i32 %6, 1
  br i1 %7, label %34, label %8

8:                                                ; preds = %0, %26
  %9 = phi i64 [ %27, %26 ], [ 1, %0 ]
  %10 = add nsw i64 %9, -1
  %11 = getelementptr inbounds [20000 x i32], [20000 x i32]* %2, i64 0, i64 %10
  %12 = call i32 (i8*, ...) @__isoc99_scanf(i8* getelementptr inbounds ([3 x i8], [3 x i8]* @.str, i64 0, i64 0), i32* nonnull %11)
  %13 = icmp ugt i64 %9, 1
  br i1 %13, label %14, label %26

14:                                               ; preds = %8
  %15 = load i32, i32* %11, align 4, !tbaa !5
  br label %18

16:                                               ; preds = %18
  %17 = icmp eq i64 %24, %9
  br i1 %17, label %26, label %18, !llvm.loop !9

18:                                               ; preds = %14, %16
  %19 = phi i64 [ 1, %14 ], [ %24, %16 ]
  %20 = add nsw i64 %19, -1
  %21 = getelementptr inbounds [20000 x i32], [20000 x i32]* %2, i64 0, i64 %20
  %22 = load i32, i32* %21, align 4, !tbaa !5
  %23 = icmp eq i32 %22, %15
  %24 = add nuw nsw i64 %19, 1
  br i1 %23, label %25, label %16

25:                                               ; preds = %18
  store i32 0, i32* %11, align 4, !tbaa !5
  br label %26

26:                                               ; preds = %16, %8, %25
  %27 = add nuw nsw i64 %9, 1
  %28 = load i32, i32* %1, align 4, !tbaa !5
  %29 = sext i32 %28 to i64
  %30 = icmp slt i64 %9, %29
  br i1 %30, label %8, label %31, !llvm.loop !11

31:                                               ; preds = %26
  %32 = getelementptr inbounds [20000 x i32], [20000 x i32]* %2, i64 0, i64 0
  %33 = load i32, i32* %32, align 16, !tbaa !5
  br label %34

34:                                               ; preds = %31, %0
  %35 = phi i32 [ %33, %31 ], [ undef, %0 ]
  %36 = call i32 (i8*, ...) @printf(i8* nonnull dereferenceable(1) getelementptr inbounds ([3 x i8], [3 x i8]* @.str, i64 0, i64 0), i32 %35)
  %37 = load i32, i32* %1, align 4, !tbaa !5
  %38 = icmp sgt i32 %37, 1
  br i1 %38, label %39, label %53

39:                                               ; preds = %34, %48
  %40 = phi i32 [ %49, %48 ], [ %37, %34 ]
  %41 = phi i64 [ %50, %48 ], [ 1, %34 ]
  %42 = getelementptr inbounds [20000 x i32], [20000 x i32]* %2, i64 0, i64 %41
  %43 = load i32, i32* %42, align 4, !tbaa !5
  %44 = icmp eq i32 %43, 0
  br i1 %44, label %48, label %45

45:                                               ; preds = %39
  %46 = call i32 (i8*, ...) @printf(i8* nonnull dereferenceable(1) getelementptr inbounds ([4 x i8], [4 x i8]* @.str.1, i64 0, i64 0), i32 %43)
  %47 = load i32, i32* %1, align 4, !tbaa !5
  br label %48

48:                                               ; preds = %39, %45
  %49 = phi i32 [ %40, %39 ], [ %47, %45 ]
  %50 = add nuw nsw i64 %41, 1
  %51 = sext i32 %49 to i64
  %52 = icmp slt i64 %50, %51
  br i1 %52, label %39, label %53, !llvm.loop !12

53:                                               ; preds = %48, %34
  call void @llvm.lifetime.end.p0i8(i64 80000, i8* nonnull %4) #3
  call void @llvm.lifetime.end.p0i8(i64 4, i8* nonnull %3) #3
  ret i32 0
}

; Function Attrs: argmemonly mustprogress nofree nosync nounwind willreturn
declare void @llvm.lifetime.start.p0i8(i64 immarg, i8* nocapture) #1

; Function Attrs: nofree nounwind
declare noundef i32 @__isoc99_scanf(i8* nocapture noundef readonly, ...) local_unnamed_addr #2

; Function Attrs: nofree nounwind
declare noundef i32 @printf(i8* nocapture noundef readonly, ...) local_unnamed_addr #2

; Function Attrs: argmemonly mustprogress nofree nosync nounwind willreturn
declare void @llvm.lifetime.end.p0i8(i64 immarg, i8* nocapture) #1


!llvm.module.flags = !{!0, !1, !2, !3}
!llvm.ident = !{!4}

!0 = !{i32 1, !"wchar_size", i32 4}
!1 = !{i32 7, !"PIC Level", i32 2}
!2 = !{i32 7, !"PIE Level", i32 2}
!3 = !{i32 7, !"uwtable", i32 1}
!4 = !{!"clang version 13.0.0"}
!5 = !{!6, !6, i64 0}
!6 = !{!"int", !7, i64 0}
!7 = !{!"omnipotent char", !8, i64 0}
!8 = !{!"Simple C/C++ TBAA"}
!9 = distinct !{!9, !10}
!10 = !{!"llvm.loop.mustprogress"}
!11 = distinct !{!11, !10}
!12 = distinct !{!12, !10}
